; Function Attrs: nofree nounwind memory(argmem: read) uwtable
define zeroext i1 @PMIx_Check_nspace(ptr noundef readonly captures(address_is_null) %0, ptr noundef readonly captures(address_is_null) %1) local_unnamed_addr #2 {
  %3 = icmp eq ptr %0, null
  br i1 %3, label %pmix_bfrops_base_tma_check_nspace.exit, label %.preheader.i.i.i

.preheader.i.i.i:                                 ; preds = %2, %6
  %.0711.i.i.i = phi i64 [ %7, %6 ], [ 0, %2 ]
  %.0810.i.i.i = phi ptr [ %8, %6 ], [ %0, %2 ]
  %4 = load i8, ptr %.0810.i.i.i, align 1, !tbaa !3
  %5 = icmp eq i8 %4, 0
  br i1 %5, label %pmix_bfrops_base_tma_nspace_invalid.exit.i, label %6

6:                                                ; preds = %.preheader.i.i.i
  %7 = add nuw nsw i64 %.0711.i.i.i, 1
  %8 = getelementptr inbounds nuw i8, ptr %.0810.i.i.i, i64 1
  %exitcond.not.i.i.i = icmp eq i64 %7, 256
  br i1 %exitcond.not.i.i.i, label %pmix_bfrops_base_tma_nspace_invalid.exit.thread2.i, label %.preheader.i.i.i, !llvm.loop !8

pmix_bfrops_base_tma_nspace_invalid.exit.i:       ; preds = %.preheader.i.i.i
  %9 = icmp eq i64 %.0711.i.i.i, 0
  %10 = icmp eq ptr %1, null
  %or.cond.i = or i1 %10, %9
  br i1 %or.cond.i, label %pmix_bfrops_base_tma_check_nspace.exit, label %.preheader.i.i7.i.preheader

pmix_bfrops_base_tma_nspace_invalid.exit.thread2.i: ; preds = %6
  %.old.i = icmp eq ptr %1, null
  br i1 %.old.i, label %pmix_bfrops_base_tma_check_nspace.exit, label %.preheader.i.i7.i.preheader

.preheader.i.i7.i.preheader:                      ; preds = %pmix_bfrops_base_tma_nspace_invalid.exit.thread2.i, %pmix_bfrops_base_tma_nspace_invalid.exit.i
  br label %.preheader.i.i7.i

.preheader.i.i7.i:                                ; preds = %.preheader.i.i7.i.preheader, %13
  %.0711.i.i8.i = phi i64 [ %14, %13 ], [ 0, %.preheader.i.i7.i.preheader ]
  %.0810.i.i9.i = phi ptr [ %15, %13 ], [ %1, %.preheader.i.i7.i.preheader ]
  %11 = load i8, ptr %.0810.i.i9.i, align 1, !tbaa !3
  %12 = icmp eq i8 %11, 0
  br i1 %12, label %pmix_bfrops_base_tma_nspace_invalid.exit14.i, label %13

13:                                               ; preds = %.preheader.i.i7.i
  %14 = add nuw nsw i64 %.0711.i.i8.i, 1
  %15 = getelementptr inbounds nuw i8, ptr %.0810.i.i9.i, i64 1
  %exitcond.not.i.i10.i = icmp eq i64 %14, 256
  br i1 %exitcond.not.i.i10.i, label %pmix_bfrops_base_tma_nspace_invalid.exit14.thread5.i, label %.preheader.i.i7.i, !llvm.loop !8

pmix_bfrops_base_tma_nspace_invalid.exit14.i:     ; preds = %.preheader.i.i7.i
  %16 = icmp eq i64 %.0711.i.i8.i, 0
  br i1 %16, label %pmix_bfrops_base_tma_check_nspace.exit, label %pmix_bfrops_base_tma_nspace_invalid.exit14.thread5.i

pmix_bfrops_base_tma_nspace_invalid.exit14.thread5.i: ; preds = %13, %pmix_bfrops_base_tma_nspace_invalid.exit14.i
  %17 = tail call i32 @strncmp(ptr noundef nonnull readonly dereferenceable(1) %0, ptr noundef nonnull readonly dereferenceable(1) %1, i64 noundef 255) #42
  %18 = icmp eq i32 %17, 0
  br label %pmix_bfrops_base_tma_check_nspace.exit

pmix_bfrops_base_tma_check_nspace.exit:           ; preds = %2, %pmix_bfrops_base_tma_nspace_invalid.exit.i, %pmix_bfrops_base_tma_nspace_invalid.exit.thread2.i, %pmix_bfrops_base_tma_nspace_invalid.exit14.i, %pmix_bfrops_base_tma_nspace_invalid.exit14.thread5.i
  %.0.i = phi i1 [ true, %pmix_bfrops_base_tma_nspace_invalid.exit.i ], [ true, %pmix_bfrops_base_tma_nspace_invalid.exit14.i ], [ %18, %pmix_bfrops_base_tma_nspace_invalid.exit14.thread5.i ], [ true, %2 ], [ true, %pmix_bfrops_base_tma_nspace_invalid.exit.thread2.i ]
  ret i1 %.0.i
}